(dp0
S'name'
p1
Vresults 25
p2
sS'colsize'
p3
(dp4
S'syerr K'
p5
I50
scnumpy.core.multiarray
scalar
p6
(cnumpy
dtype
p7
(S'S11'
p8
I0
I1
tp9
Rp10
(I3
S'|'
p11
NNNI11
I1
I0
tp12
bS'k_dark2_rep'
p13
tp14
Rp15
I50
sS'Nerr K'
p16
I50
sg6
(g7
(S'S4'
p17
I0
I1
tp18
Rp19
(I3
S'|'
p20
NNNI4
I1
I0
tp21
bS'k_r7'
p22
tp23
Rp24
I30
sS'dynamic'
p25
I50
sS'Filename'
p26
I50
sg6
(g7
(S'S10'
p27
I0
I1
tp28
Rp29
(I3
S'|'
p30
NNNI10
I1
I0
tp31
bS'k_dark_aom'
p32
tp33
Rp34
I50
sS'N K'
p35
I50
sg6
(g7
(S'S10'
p36
I0
I1
tp37
Rp38
(I3
S'|'
p39
NNNI10
I1
I0
tp40
bS'k_dark_vco'
p41
tp42
Rp43
I50
sS'sxerr Rb'
p44
I50
sS'Angle Rb'
p45
I50
sS'my Sr'
p46
I50
sg6
(g7
(S'S11'
p47
I0
I1
tp48
Rp49
(I3
S'|'
p50
NNNI11
I1
I0
tp51
bS'k_dark2_aom'
p52
tp53
Rp54
I50
sg6
(g7
(S'S10'
p55
I0
I1
tp56
Rp57
(I3
S'|'
p58
NNNI10
I1
I0
tp59
bS'k_imag_det'
p60
tp61
Rp62
I50
sS'sx2 Rb'
p63
I50
sg6
(g7
(S'S2'
p64
I0
I1
tp65
Rp66
(I3
S'|'
p67
NNNI2
I1
I0
tp68
bS'tt'
p69
tp70
Rp71
I50
sS'rxerr K'
p72
I50
sS'OD Rb'
p73
I50
sg6
(g7
(S'S15'
p74
I0
I1
tp75
Rp76
(I3
S'|'
p77
NNNI15
I1
I0
tp78
bS'k_dark_cool_int'
p79
tp80
Rp81
I50
sS'Nbec Rb'
p82
I50
sS'T Rb'
p83
I50
sS'mx Sr'
p84
I50
sg6
(g7
(S'S8'
p85
I0
I1
tp86
Rp87
(I3
S'|'
p88
NNNI8
I1
I0
tp89
bS'push_int'
p90
tp91
Rp92
I50
sg6
(g7
(S'S9'
p93
I0
I1
tp94
Rp95
(I3
S'|'
p96
NNNI9
I1
I0
tp97
bS'time_freq'
p98
tp99
Rp100
I50
sS'mxerr Rb'
p101
I50
sS'my K'
p102
I50
sS'Remark'
p103
I200
sg6
(g7
(S'S15'
p104
I0
I1
tp105
Rp106
(I3
S'|'
p107
NNNI15
I1
I0
tp108
bS'k_dark2_cool_in'
p109
tp110
Rp111
I50
sS'sx K'
p112
I50
sS'Omit'
p113
I50
sS'OD2 Rb'
p114
I50
sS'ODerr Rb'
p115
I50
sS'Angle Sr'
p116
I50
sS'Nbec K'
p117
I50
sS'Terr Rb'
p118
I50
sS'FileID'
p119
I50
sS'ryerr K'
p120
I50
sS'params K'
p121
I50
sS'T Sr'
p122
I50
sS'Nth Sr'
p123
I50
sS'OD Sr'
p124
I50
sS'my Rb'
p125
I50
sS'syerr Rb'
p126
I50
sg6
(g7
(S'S11'
p127
I0
I1
tp128
Rp129
(I3
S'|'
p130
NNNI11
I1
I0
tp131
bS'k_dark2_vco'
p132
tp133
Rp134
I50
sg6
(g7
(S'S12'
p135
I0
I1
tp136
Rp137
(I3
S'|'
p138
NNNI12
I1
I0
tp139
bS'k_dark_start'
p140
tp141
Rp142
I50
sg6
(g7
(S'S7'
p143
I0
I1
tp144
Rp145
(I3
S'|'
p146
NNNI7
I1
I0
tp147
bS'mol_dur'
p148
tp149
Rp150
I50
sS'ry Sr'
p151
I50
sS'ryerr Rb'
p152
I50
sS'sy Rb'
p153
I50
sS'N2 Rb'
p154
I50
sS'OD K'
p155
I50
sg6
(g7
(S'S4'
p156
I0
I1
tp157
Rp158
(I3
S'|'
p159
NNNI4
I1
I0
tp160
bS't_R5'
p161
tp162
Rp163
I50
sg6
(g7
(S'S4'
p164
I0
I1
tp165
Rp166
(I3
S'|'
p167
NNNI4
I1
I0
tp168
bS't_R4'
p169
tp170
Rp171
I50
sg6
(g7
(S'S4'
p172
I0
I1
tp173
Rp174
(I3
S'|'
p175
NNNI4
I1
I0
tp176
bS't_R7'
p177
tp178
Rp179
I50
sg6
(g7
(S'S4'
p180
I0
I1
tp181
Rp182
(I3
S'|'
p183
NNNI4
I1
I0
tp184
bS't_R6'
p185
tp186
Rp187
I50
sg6
(g7
(S'S4'
p188
I0
I1
tp189
Rp190
(I3
S'|'
p191
NNNI4
I1
I0
tp192
bS't_R1'
p193
tp194
Rp195
I50
sg6
(g7
(S'S4'
p196
I0
I1
tp197
Rp198
(I3
S'|'
p199
NNNI4
I1
I0
tp200
bS't_R3'
p201
tp202
Rp203
I50
sg6
(g7
(S'S4'
p204
I0
I1
tp205
Rp206
(I3
S'|'
p207
NNNI4
I1
I0
tp208
bS't_R2'
p209
tp210
Rp211
I50
sg6
(g7
(S'S8'
p212
I0
I1
tp213
Rp214
(I3
S'|'
p215
NNNI8
I1
I0
tp216
bS'gradient'
p217
tp218
Rp219
I50
sS'sigma K'
p220
I50
sS'rx Sr'
p221
I50
sg6
(g7
(S'S6'
p222
I0
I1
tp223
Rp224
(I3
S'|'
p225
NNNI6
I1
I0
tp226
bS'imag_k'
p227
tp228
Rp229
I50
sS'sigma Rb'
p230
I50
sS'myerr Sr'
p231
I50
sS'dynamic 2'
p232
I50
sS'dynamic 3'
p233
I50
sS'dynamic 6'
p234
I50
sS'dynamic 7'
p235
I50
sS'dynamic 4'
p236
I50
sS'dynamic 5'
p237
I50
sS'sxerr Sr'
p238
I50
sS'sxerr K'
p239
I50
sS'sy K'
p240
I50
sg6
(g7
(S'S6'
p241
I0
I1
tp242
Rp243
(I3
S'|'
p244
NNNI6
I1
I0
tp245
bS'k_shut'
p246
tp247
Rp248
I50
sg6
(g7
(S'S4'
p249
I0
I1
tp250
Rp251
(I3
S'|'
p252
NNNI4
I1
I0
tp253
bS'freq'
p254
tp255
Rp256
I50
sg6
(g7
(S'S10'
p257
I0
I1
tp258
Rp259
(I3
S'|'
p260
NNNI10
I1
I0
tp261
bS'k_mot_load'
p262
tp263
Rp264
I50
sS'T K'
p265
I50
sS'Nbec Sr'
p266
I50
sS'rx Rb'
p267
I50
sg6
(g7
(S'S13'
p268
I0
I1
tp269
Rp270
(I3
S'|'
p271
NNNI13
I1
I0
tp272
bS'dark_detuning'
p273
tp274
Rp275
I50
sS'mx Rb'
p276
I50
sS'sx2err Rb'
p277
I50
sS'sigma Sr'
p278
I50
sS'OD2err Rb'
p279
I50
sg6
(g7
(S'S7'
p280
I0
I1
tp281
Rp282
(I3
S'|'
p283
NNNI7
I1
I0
tp284
bS'1550_R5'
p285
tp286
Rp287
I50
sg6
(g7
(S'S7'
p288
I0
I1
tp289
Rp290
(I3
S'|'
p291
NNNI7
I1
I0
tp292
bS'1550_R7'
p293
tp294
Rp295
I50
sg6
(g7
(S'S11'
p296
I0
I1
tp297
Rp298
(I3
S'|'
p299
NNNI11
I1
I0
tp300
bS'Imaging_det'
p301
tp302
Rp303
I50
sg6
(g7
(S'S4'
p304
I0
I1
tp305
Rp306
(I3
S'|'
p307
NNNI4
I1
I0
tp308
bS'Dumm'
p309
tp310
Rp311
I50
sg6
(g7
(S'S8'
p312
I0
I1
tp313
Rp314
(I3
S'|'
p315
NNNI8
I1
I0
tp316
bS'vva_imag'
p317
tp318
Rp319
I50
sg6
(g7
(S'S5'
p320
I0
I1
tp321
Rp322
(I3
S'|'
p323
NNNI5
I1
I0
tp324
bS't_exp'
p325
tp326
Rp327
I50
sg6
(g7
(S'S7'
p328
I0
I1
tp329
Rp330
(I3
S'|'
p331
NNNI7
I1
I0
tp332
bS'on_1550'
p333
tp334
Rp335
I50
sg6
(g7
(S'S14'
p336
I0
I1
tp337
Rp338
(I3
S'|'
p339
NNNI14
I1
I0
tp340
bS'IterationCount'
p341
tp342
Rp343
I50
sS'rho Sr'
p344
I50
sS'N Sr'
p345
I50
sg6
(g7
(S'S12'
p346
I0
I1
tp347
Rp348
(I3
S'|'
p349
NNNI12
I1
I0
tp350
bS'IterationNum'
p351
tp352
Rp353
I50
sS'Nerr Rb'
p354
I50
sS'N2err Rb'
p355
I50
sS'Angle K'
p356
I50
sS'rx K'
p357
I50
sS'params Rb'
p358
I50
sg6
(g7
(S'S15'
p359
I0
I1
tp360
Rp361
(I3
S'|'
p362
NNNI15
I1
I0
tp363
bS'gradient_distil'
p364
tp365
Rp366
I50
sg6
(g7
(S'S13'
p367
I0
I1
tp368
Rp369
(I3
S'|'
p370
NNNI13
I1
I0
tp371
bS'repumper_dark'
p372
tp373
Rp374
I50
sS'N Rb'
p375
I50
sS'ryerr Sr'
p376
I50
sS'ry K'
p377
I50
sS'rho Rb'
p378
I50
sS'sy Sr'
p379
I50
sg6
(g7
(S'S10'
p380
I0
I1
tp381
Rp382
(I3
S'|'
p383
NNNI10
I1
I0
tp384
bS'k_dark_dur'
p385
tp386
Rp387
I50
sS'ry Rb'
p388
I50
sS'myerr K'
p389
I50
sg6
(g7
(S'S9'
p390
I0
I1
tp391
Rp392
(I3
S'|'
p393
NNNI9
I1
I0
tp394
bS'k_mol_rep'
p395
tp396
Rp397
I50
sg6
(g7
(S'S5'
p398
I0
I1
tp399
Rp400
(I3
S'|'
p401
NNNI5
I1
I0
tp402
bS'k_vco'
p403
tp404
Rp405
I50
sg6
(g7
(S'S15'
p406
I0
I1
tp407
Rp408
(I3
S'|'
p409
NNNI15
I1
I0
tp410
bS'Dark2_MOT_durat'
p411
tp412
Rp413
I50
sS'myerr Rb'
p414
I50
sg6
(g7
(S'S15'
p415
I0
I1
tp416
Rp417
(I3
S'|'
p418
NNNI15
I1
I0
tp419
bS'Dark_MOT_durati'
p420
tp421
Rp422
I50
sS'Terr Sr'
p423
I50
sS'user2'
p424
I50
sS'user3'
p425
I50
sS'm'
p426
I50
sS'syerr Sr'
p427
I50
sg6
(g7
(S'S7'
p428
I0
I1
tp429
Rp430
(I3
S'|'
p431
NNNI7
I1
I0
tp432
bS'1070_R5'
p433
tp434
Rp435
I50
sg6
(g7
(S'S7'
p436
I0
I1
tp437
Rp438
(I3
S'|'
p439
NNNI7
I1
I0
tp440
bS'1070_R6'
p441
tp442
Rp443
I50
sg6
(g7
(S'S7'
p444
I0
I1
tp445
Rp446
(I3
S'|'
p447
NNNI7
I1
I0
tp448
bS'1070_R7'
p449
tp450
Rp451
I50
sg6
(g7
(S'S7'
p452
I0
I1
tp453
Rp454
(I3
S'|'
p455
NNNI7
I1
I0
tp456
bS'1070_R1'
p457
tp458
Rp459
I50
sg6
(g7
(S'S7'
p460
I0
I1
tp461
Rp462
(I3
S'|'
p463
NNNI7
I1
I0
tp464
bS'1070_R2'
p465
tp466
Rp467
I50
sg6
(g7
(S'S7'
p468
I0
I1
tp469
Rp470
(I3
S'|'
p471
NNNI7
I1
I0
tp472
bS'1070_R3'
p473
tp474
Rp475
I50
sg6
(g7
(S'S6'
p476
I0
I1
tp477
Rp478
(I3
S'|'
p479
NNNI6
I1
I0
tp480
bS'Rb_VCO'
p481
tp482
Rp483
I50
sS'Nth Rb'
p484
I50
sS'rxerr Rb'
p485
I50
sS'sx Rb'
p486
I50
sS'Nerr Sr'
p487
I50
sg6
(g7
(S'S11'
p488
I0
I1
tp489
Rp490
(I3
S'|'
p491
NNNI11
I1
I0
tp492
bS'k_mol_vco_1'
p493
tp494
Rp495
I50
sg6
(g7
(S'S11'
p496
I0
I1
tp497
Rp498
(I3
S'|'
p499
NNNI11
I1
I0
tp500
bS'k_mol_vco_2'
p501
tp502
Rp503
I50
sg6
(g7
(S'S7'
p504
I0
I1
tp505
Rp506
(I3
S'|'
p507
NNNI7
I1
I0
tp508
bS'1070_R4'
p509
tp510
Rp511
I50
sg6
(g7
(S'S7'
p512
I0
I1
tp513
Rp514
(I3
S'|'
p515
NNNI7
I1
I0
tp516
bS'1550_R6'
p517
tp518
Rp519
I50
sS'Terr K'
p520
I50
sg6
(g7
(S'S10'
p521
I0
I1
tp522
Rp523
(I3
S'|'
p524
NNNI10
I1
I0
tp525
bS'k_dark_rep'
p526
tp527
Rp528
I50
sS'rho K'
p529
I50
sS'sy2 Rb'
p530
I50
sS'user'
p531
I50
sS'mx K'
p532
I50
sg6
(g7
(S'S9'
p533
I0
I1
tp534
Rp535
(I3
S'|'
p536
NNNI9
I1
I0
tp537
bS'gradient2'
p538
tp539
Rp540
I50
sg6
(g7
(S'S7'
p541
I0
I1
tp542
Rp543
(I3
S'|'
p544
NNNI7
I1
I0
tp545
bS'aom_img'
p546
tp547
Rp548
I50
sS'rxerr Sr'
p549
I50
sS'params Sr'
p550
I50
sg6
(g7
(S'S9'
p551
I0
I1
tp552
Rp553
(I3
S'|'
p554
NNNI9
I1
I0
tp555
bS'k_mol_aom'
p556
tp557
Rp558
I50
sS'Nth K'
p559
I50
sg6
(g7
(S'S8'
p560
I0
I1
tp561
Rp562
(I3
S'|'
p563
NNNI8
I1
I0
tp564
bS'feshbach'
p565
tp566
Rp567
I50
sS'N total'
p568
I50
sS'sx Sr'
p569
I50
ssS'dynamic_expressions'
p570
(lp571
S''
p572
ag572
aVN_K/(N_K+N_Rb+N_Sr)
p573
aVN_Rb/(N_K+N_Rb+N_Sr)
p574
aVN_Sr/(N_K+N_Rb+N_Sr)
p575
aVN_K+N_Rb+N_Sr
p576
ag572
ag572
ag572
ag572
ag572
ag572
asS'colsel'
p577
(lp578
g119
ag345
ag124
ag569
ag379
ag122
ag35
ag155
ag112
ag240
ag265
ag375
ag73
ag486
ag153
ag83
ag568
ag426
ag344
ag529
ag378
ag25
ag531
ag113
ag353
ag311
ag103
asS'column_labels_custom'
p579
(dp580
sS'marks'
p581
(dp582
S'Y1'
p583
(lp584
g529
ag378
ag344
asS'X'
p585
(lp586
g311
asS'Y2'
p587
(lp588
g25
asS'G'
p589
(lp590
ss.